target datalayout = "e-m:e-p270:32:32-p271:32:32-p272:64:64-i64:64-i128:128-f80:128-n8:16:32:64-S128"
target triple = "x86_64-pc-linux-gnu"

%struct.AVCodecParserContext = type { ptr, ptr, i64, i64, i64, i32, i32, i64, i64, i64, i64, i32, i32, [4 x i64], [4 x i64], [4 x i64], i32, i64, [4 x i64], i32, i32, i32, i32, [4 x i64], i64, i64, i32, i32, i32, i32, i32, i32, i32, i32, i32 }
%struct.AVCodecContext = type { ptr, i32, i32, ptr, i32, i32, ptr, ptr, ptr, i64, i32, i32, ptr, i32, %struct.AVRational, %struct.AVRational, %struct.AVRational, i32, i32, i32, i32, i32, %struct.AVRational, i32, i32, i32, i32, i32, i32, i32, i32, i32, i32, i32, ptr, ptr, i32, float, float, float, float, float, float, float, float, float, i32, i32, i32, i32, i32, i32, i32, i32, i32, i32, i32, i32, ptr, ptr, ptr, i32, i32, i32, i32, i32, i32, i32, i32, i32, i32, %struct.AVChannelLayout, i32, i32, i32, i32, i32, i32, i32, i32, ptr, i32, i32, i32, float, float, i32, i32, i32, i32, i32, ptr, i64, i64, float, float, i32, i32, ptr, ptr, i32, i32, i32, i32, i32, ptr, ptr, ptr, ptr, i32, i32, [8 x i64], i32, i32, i32, i32, i32, i32, i32, ptr, ptr, i32, i32, i32, i32, i32, i32, i32, i32, i32, i32, ptr, ptr, i32, i32, ptr, ptr, ptr, ptr, i32, i32, i64, i32, i32, i64, ptr, i64, ptr, i32, ptr, i32 }
%struct.AVRational = type { i32, i32 }
%struct.AVChannelLayout = type { i32, i32, %union.anon, ptr }
%union.anon = type { i64 }

@sbc_parse_header.sample_rates = internal constant [4 x i32] [i32 16000, i32 32000, i32 44100, i32 48000], align 16

; Function Attrs: nounwind uwtable
define internal i32 @sbc_parse_header(ptr noundef %0, ptr noundef %1, ptr noundef %2, i64 noundef %3) #0 {
  %5 = alloca i32, align 4
  %6 = alloca ptr, align 8
  %7 = alloca ptr, align 8
  %8 = alloca ptr, align 8
  %9 = alloca i64, align 8
  %10 = alloca i32, align 4
  %11 = alloca i32, align 4
  %12 = alloca i32, align 4
  %13 = alloca i32, align 4
  %14 = alloca i32, align 4
  %15 = alloca i32, align 4
  %16 = alloca i32, align 4
  %17 = alloca i32, align 4
  %18 = alloca i32, align 4
  store ptr %0, ptr %6, align 8, !tbaa !4
  store ptr %1, ptr %7, align 8, !tbaa !9
  store ptr %2, ptr %8, align 8, !tbaa !16
  store i64 %3, ptr %9, align 8, !tbaa !31
  call void @llvm.lifetime.start.p0(i64 4, ptr %10) #4
  call void @llvm.lifetime.start.p0(i64 4, ptr %11) #4
  call void @llvm.lifetime.start.p0(i64 4, ptr %12) #4
  call void @llvm.lifetime.start.p0(i64 4, ptr %13) #4
  call void @llvm.lifetime.start.p0(i64 4, ptr %14) #4
  call void @llvm.lifetime.start.p0(i64 4, ptr %15) #4
  call void @llvm.lifetime.start.p0(i64 4, ptr %16) #4
  call void @llvm.lifetime.start.p0(i64 4, ptr %17) #4
  %19 = load i64, ptr %9, align 8, !tbaa !31
  %20 = icmp ult i64 %19, 3
  br i1 %20, label %21, label %22

21:                                               ; preds = %4
  store i32 -1, ptr %5, align 4
  store i32 1, ptr %18, align 4
  br label %150

22:                                               ; preds = %4
  %23 = load ptr, ptr %8, align 8, !tbaa !16
  %24 = getelementptr inbounds i8, ptr %23, i64 0
  %25 = load i8, ptr %24, align 1, !tbaa !32
  %26 = zext i8 %25 to i32
  %27 = icmp eq i32 %26, 173
  br i1 %27, label %28, label %58

28:                                               ; preds = %22
  %29 = load ptr, ptr %8, align 8, !tbaa !16
  %30 = getelementptr inbounds i8, ptr %29, i64 1
  %31 = load i8, ptr %30, align 1, !tbaa !32
  %32 = zext i8 %31 to i32
  %33 = icmp eq i32 %32, 0
  br i1 %33, label %34, label %58

34:                                               ; preds = %28
  %35 = load ptr, ptr %8, align 8, !tbaa !16
  %36 = getelementptr inbounds i8, ptr %35, i64 2
  %37 = load i8, ptr %36, align 1, !tbaa !32
  %38 = zext i8 %37 to i32
  %39 = icmp eq i32 %38, 0
  br i1 %39, label %40, label %58

40:                                               ; preds = %34
  %41 = load ptr, ptr %7, align 8, !tbaa !9
  %42 = getelementptr inbounds nuw %struct.AVCodecContext, ptr %41, i32 0, i32 71
  call void @av_channel_layout_uninit(ptr noundef %42)
  %43 = load ptr, ptr %7, align 8, !tbaa !9
  %44 = getelementptr inbounds nuw %struct.AVCodecContext, ptr %43, i32 0, i32 71
  %45 = getelementptr inbounds nuw %struct.AVChannelLayout, ptr %44, i32 0, i32 0
  store i32 0, ptr %45, align 8, !tbaa !33
  %46 = load ptr, ptr %7, align 8, !tbaa !9
  %47 = getelementptr inbounds nuw %struct.AVCodecContext, ptr %46, i32 0, i32 71
  %48 = getelementptr inbounds nuw %struct.AVChannelLayout, ptr %47, i32 0, i32 1
  store i32 1, ptr %48, align 4, !tbaa !48
  %49 = load ptr, ptr %7, align 8, !tbaa !9
  %50 = getelementptr inbounds nuw %struct.AVCodecContext, ptr %49, i32 0, i32 69
  store i32 16000, ptr %50, align 8, !tbaa !49
  %51 = load ptr, ptr %7, align 8, !tbaa !9
  %52 = getelementptr inbounds nuw %struct.AVCodecContext, ptr %51, i32 0, i32 72
  store i32 120, ptr %52, align 8, !tbaa !50
  %53 = load ptr, ptr %7, align 8, !tbaa !9
  %54 = getelementptr inbounds nuw %struct.AVCodecContext, ptr %53, i32 0, i32 72
  %55 = load i32, ptr %54, align 8, !tbaa !50
  %56 = load ptr, ptr %6, align 8, !tbaa !4
  %57 = getelementptr inbounds nuw %struct.AVCodecParserContext, ptr %56, i32 0, i32 26
  store i32 %55, ptr %57, align 8, !tbaa !51
  store i32 57, ptr %5, align 4
  store i32 1, ptr %18, align 4
  br label %150

58:                                               ; preds = %34, %28, %22
  %59 = load ptr, ptr %8, align 8, !tbaa !16
  %60 = getelementptr inbounds i8, ptr %59, i64 0
  %61 = load i8, ptr %60, align 1, !tbaa !32
  %62 = zext i8 %61 to i32
  %63 = icmp ne i32 %62, 156
  br i1 %63, label %64, label %65

64:                                               ; preds = %58
  store i32 -2, ptr %5, align 4
  store i32 1, ptr %18, align 4
  br label %150

65:                                               ; preds = %58
  %66 = load ptr, ptr %8, align 8, !tbaa !16
  %67 = getelementptr inbounds i8, ptr %66, i64 1
  %68 = load i8, ptr %67, align 1, !tbaa !32
  %69 = zext i8 %68 to i32
  %70 = ashr i32 %69, 6
  %71 = and i32 %70, 3
  store i32 %71, ptr %10, align 4, !tbaa !18
  %72 = load ptr, ptr %8, align 8, !tbaa !16
  %73 = getelementptr inbounds i8, ptr %72, i64 1
  %74 = load i8, ptr %73, align 1, !tbaa !32
  %75 = zext i8 %74 to i32
  %76 = ashr i32 %75, 4
  %77 = and i32 %76, 3
  %78 = add nsw i32 %77, 1
  %79 = shl i32 %78, 2
  store i32 %79, ptr %11, align 4, !tbaa !18
  %80 = load ptr, ptr %8, align 8, !tbaa !16
  %81 = getelementptr inbounds i8, ptr %80, i64 1
  %82 = load i8, ptr %81, align 1, !tbaa !32
  %83 = zext i8 %82 to i32
  %84 = ashr i32 %83, 2
  %85 = and i32 %84, 3
  store i32 %85, ptr %12, align 4, !tbaa !18
  %86 = load ptr, ptr %8, align 8, !tbaa !16
  %87 = getelementptr inbounds i8, ptr %86, i64 1
  %88 = load i8, ptr %87, align 1, !tbaa !32
  %89 = zext i8 %88 to i32
  %90 = ashr i32 %89, 0
  %91 = and i32 %90, 1
  %92 = add nsw i32 %91, 1
  %93 = shl i32 %92, 2
  store i32 %93, ptr %13, align 4, !tbaa !18
  %94 = load ptr, ptr %8, align 8, !tbaa !16
  %95 = getelementptr inbounds i8, ptr %94, i64 2
  %96 = load i8, ptr %95, align 1, !tbaa !32
  %97 = zext i8 %96 to i32
  store i32 %97, ptr %14, align 4, !tbaa !18
  %98 = load i32, ptr %12, align 4, !tbaa !18
  %99 = icmp eq i32 %98, 0
  %100 = select i1 %99, i32 1, i32 2
  store i32 %100, ptr %15, align 4, !tbaa !18
  %101 = load i32, ptr %12, align 4, !tbaa !18
  %102 = icmp eq i32 %101, 3
  %103 = zext i1 %102 to i32
  store i32 %103, ptr %16, align 4, !tbaa !18
  %104 = load i32, ptr %13, align 4, !tbaa !18
  %105 = load i32, ptr %15, align 4, !tbaa !18
  %106 = mul nsw i32 %104, %105
  %107 = sdiv i32 %106, 2
  %108 = add nsw i32 4, %107
  %109 = load i32, ptr %12, align 4, !tbaa !18
  %110 = icmp eq i32 %109, 1
  %111 = zext i1 %110 to i32
  %112 = add nsw i32 %111, 1
  %113 = load i32, ptr %11, align 4, !tbaa !18
  %114 = mul nsw i32 %112, %113
  %115 = load i32, ptr %14, align 4, !tbaa !18
  %116 = mul nsw i32 %114, %115
  %117 = load i32, ptr %16, align 4, !tbaa !18
  %118 = load i32, ptr %13, align 4, !tbaa !18
  %119 = mul nsw i32 %117, %118
  %120 = add nsw i32 %116, %119
  %121 = add nsw i32 %120, 7
  %122 = sdiv i32 %121, 8
  %123 = add nsw i32 %108, %122
  store i32 %123, ptr %17, align 4, !tbaa !18
  %124 = load ptr, ptr %7, align 8, !tbaa !9
  %125 = getelementptr inbounds nuw %struct.AVCodecContext, ptr %124, i32 0, i32 71
  call void @av_channel_layout_uninit(ptr noundef %125)
  %126 = load ptr, ptr %7, align 8, !tbaa !9
  %127 = getelementptr inbounds nuw %struct.AVCodecContext, ptr %126, i32 0, i32 71
  %128 = getelementptr inbounds nuw %struct.AVChannelLayout, ptr %127, i32 0, i32 0
  store i32 0, ptr %128, align 8, !tbaa !33
  %129 = load i32, ptr %15, align 4, !tbaa !18
  %130 = load ptr, ptr %7, align 8, !tbaa !9
  %131 = getelementptr inbounds nuw %struct.AVCodecContext, ptr %130, i32 0, i32 71
  %132 = getelementptr inbounds nuw %struct.AVChannelLayout, ptr %131, i32 0, i32 1
  store i32 %129, ptr %132, align 4, !tbaa !48
  %133 = load i32, ptr %10, align 4, !tbaa !18
  %134 = sext i32 %133 to i64
  %135 = getelementptr inbounds [4 x i32], ptr @sbc_parse_header.sample_rates, i64 0, i64 %134
  %136 = load i32, ptr %135, align 4, !tbaa !18
  %137 = load ptr, ptr %7, align 8, !tbaa !9
  %138 = getelementptr inbounds nuw %struct.AVCodecContext, ptr %137, i32 0, i32 69
  store i32 %136, ptr %138, align 8, !tbaa !49
  %139 = load i32, ptr %13, align 4, !tbaa !18
  %140 = load i32, ptr %11, align 4, !tbaa !18
  %141 = mul nsw i32 %139, %140
  %142 = load ptr, ptr %7, align 8, !tbaa !9
  %143 = getelementptr inbounds nuw %struct.AVCodecContext, ptr %142, i32 0, i32 72
  store i32 %141, ptr %143, align 8, !tbaa !50
  %144 = load ptr, ptr %7, align 8, !tbaa !9
  %145 = getelementptr inbounds nuw %struct.AVCodecContext, ptr %144, i32 0, i32 72
  %146 = load i32, ptr %145, align 8, !tbaa !50
  %147 = load ptr, ptr %6, align 8, !tbaa !4
  %148 = getelementptr inbounds nuw %struct.AVCodecParserContext, ptr %147, i32 0, i32 26
  store i32 %146, ptr %148, align 8, !tbaa !51
  %149 = load i32, ptr %17, align 4, !tbaa !18
  store i32 %149, ptr %5, align 4
  store i32 1, ptr %18, align 4
  br label %150

150:                                              ; preds = %65, %64, %40, %21
  call void @llvm.lifetime.end.p0(i64 4, ptr %17) #4
  call void @llvm.lifetime.end.p0(i64 4, ptr %16) #4
  call void @llvm.lifetime.end.p0(i64 4, ptr %15) #4
  call void @llvm.lifetime.end.p0(i64 4, ptr %14) #4
  call void @llvm.lifetime.end.p0(i64 4, ptr %13) #4
  call void @llvm.lifetime.end.p0(i64 4, ptr %12) #4
  call void @llvm.lifetime.end.p0(i64 4, ptr %11) #4
  call void @llvm.lifetime.end.p0(i64 4, ptr %10) #4
  %151 = load i32, ptr %5, align 4
  ret i32 %151
}