; Function Attrs: nounwind uwtable
define internal fastcc range(i32 -2, 1034) i32 @sbc_parse_header(ptr noundef writeonly captures(none) %0, ptr noundef %1, ptr noundef readonly captures(none) %2, i64 noundef range(i64 -2147483648, 2147483648) %3) unnamed_addr #0 {
  %5 = icmp ult i64 %3, 3
  br i1 %5, label %.thread, label %6

6:                                                ; preds = %4
  %7 = load i8, ptr %2, align 1, !tbaa !20
  switch i8 %7, label %.thread [
    i8 -83, label %8
    i8 -100, label %20
  ]

8:                                                ; preds = %6
  %9 = getelementptr inbounds nuw i8, ptr %2, i64 1
  %10 = load i8, ptr %9, align 1, !tbaa !20
  %11 = icmp eq i8 %10, 0
  br i1 %11, label %12, label %.thread

12:                                               ; preds = %8
  %13 = getelementptr inbounds nuw i8, ptr %2, i64 2
  %14 = load i8, ptr %13, align 1, !tbaa !20
  %15 = icmp eq i8 %14, 0
  br i1 %15, label %16, label %.thread

16:                                               ; preds = %12
  %17 = getelementptr inbounds nuw i8, ptr %1, i64 352
  tail call void @av_channel_layout_uninit(ptr noundef nonnull %17) #4
  store i32 0, ptr %17, align 8, !tbaa !21
  %18 = getelementptr inbounds nuw i8, ptr %1, i64 356
  store i32 1, ptr %18, align 4, !tbaa !38
  %19 = getelementptr inbounds nuw i8, ptr %1, i64 344
  store i32 16000, ptr %19, align 8, !tbaa !39
  br label %.thread.sink.split

20:                                               ; preds = %6
  %21 = getelementptr inbounds nuw i8, ptr %2, i64 1
  %22 = load i8, ptr %21, align 1, !tbaa !20
  %23 = zext i8 %22 to i32
  %24 = lshr i32 %23, 6
  %25 = lshr i32 %23, 2
  %26 = and i32 %25, 12
  %27 = add nuw nsw i32 %26, 4
  %28 = and i32 %25, 3
  %29 = shl nuw nsw i32 %23, 2
  %30 = and i32 %29, 4
  %31 = add nuw nsw i32 %30, 4
  %32 = getelementptr inbounds nuw i8, ptr %2, i64 2
  %33 = load i8, ptr %32, align 1, !tbaa !20
  %34 = zext i8 %33 to i32
  %35 = icmp ne i32 %28, 0
  %36 = select i1 %35, i32 2, i32 1
  %37 = icmp eq i32 %28, 3
  %38 = zext i1 %35 to i32
  %39 = shl nuw nsw i32 %31, %38
  %40 = lshr exact i32 %39, 1
  %41 = add nuw nsw i32 %40, 4
  %42 = icmp eq i32 %28, 1
  %43 = zext i1 %42 to i32
  %44 = shl nuw nsw i32 %27, %43
  %45 = mul nuw nsw i32 %44, %34
  %46 = or disjoint i32 %30, 8
  %47 = select i1 %37, i32 %46, i32 4
  %48 = add nuw nsw i32 %47, %45
  %49 = lshr i32 %48, 3
  %50 = add nuw nsw i32 %41, %49
  %51 = getelementptr inbounds nuw i8, ptr %1, i64 352
  tail call void @av_channel_layout_uninit(ptr noundef nonnull %51) #4
  store i32 0, ptr %51, align 8, !tbaa !21
  %52 = getelementptr inbounds nuw i8, ptr %1, i64 356
  store i32 %36, ptr %52, align 4, !tbaa !38
  %53 = zext nneg i32 %24 to i64
  %54 = getelementptr inbounds nuw [4 x i32], ptr @sbc_parse_header.sample_rates, i64 0, i64 %53
  %55 = load i32, ptr %54, align 4, !tbaa !9
  %56 = getelementptr inbounds nuw i8, ptr %1, i64 344
  store i32 %55, ptr %56, align 8, !tbaa !39
  %57 = mul nuw nsw i32 %31, %27
  br label %.thread.sink.split

.thread.sink.split:                               ; preds = %16, %20
  %.sink40 = phi i32 [ %57, %20 ], [ 120, %16 ]
  %.0.ph = phi i32 [ %50, %20 ], [ 57, %16 ]
  %58 = getelementptr inbounds nuw i8, ptr %1, i64 376
  store i32 %.sink40, ptr %58, align 8, !tbaa !40
  %59 = getelementptr inbounds nuw i8, ptr %0, i64 296
  store i32 %.sink40, ptr %59, align 8, !tbaa !41
  br label %.thread

.thread:                                          ; preds = %.thread.sink.split, %6, %8, %12, %4
  %.0 = phi i32 [ -1, %4 ], [ -2, %12 ], [ -2, %8 ], [ -2, %6 ], [ %.0.ph, %.thread.sink.split ]
  ret i32 %.0
}